; ModuleID = '60/1176.c'
source_filename = "60/1176.c"
target datalayout = "e-m:e-p270:32:32-p271:32:32-p272:64:64-i64:64-f80:128-n8:16:32:64-S128"
target triple = "x86_64-pc-linux-gnu"

@.str = private unnamed_addr constant [3 x i8] c"%d\00", align 1
@.str.1 = private unnamed_addr constant [7 x i8] c"%d %d\0A\00", align 1
@.str.2 = private unnamed_addr constant [6 x i8] c"empty\00", align 1

; Function Attrs: noinline nounwind uwtable
define dso_local i32 @main() #0 {
  %1 = alloca i32, align 4
  %2 = alloca [2 x i32], align 4
  %3 = alloca i32, align 4
  %4 = alloca i32, align 4
  %5 = alloca i32, align 4
  %6 = alloca i32, align 4
  %7 = alloca i32, align 4
  %8 = alloca i32, align 4
  store i32 0, i32* %1, align 4
  store i32 0, i32* %5, align 4
  store i32 0, i32* %8, align 4
  %9 = call i32 (i8*, ...) @__isoc99_scanf(i8* getelementptr inbounds ([3 x i8], [3 x i8]* @.str, i64 0, i64 0), i32* %6)
  store i32 3, i32* %3, align 4
  br label %10

10:                                               ; preds = %61, %0
  %11 = load i32, i32* %3, align 4
  %12 = load i32, i32* %6, align 4
  %13 = icmp sle i32 %11, %12
  br i1 %13, label %14, label %64

14:                                               ; preds = %10
  store i32 1, i32* %7, align 4
  store i32 2, i32* %4, align 4
  br label %15

15:                                               ; preds = %27, %14
  %16 = load i32, i32* %4, align 4
  %17 = load i32, i32* %3, align 4
  %18 = sdiv i32 %17, 2
  %19 = icmp sle i32 %16, %18
  br i1 %19, label %20, label %30

20:                                               ; preds = %15
  %21 = load i32, i32* %3, align 4
  %22 = load i32, i32* %4, align 4
  %23 = srem i32 %21, %22
  %24 = icmp eq i32 %23, 0
  br i1 %24, label %25, label %26

25:                                               ; preds = %20
  store i32 0, i32* %7, align 4
  br label %30

26:                                               ; preds = %20
  br label %27

27:                                               ; preds = %26
  %28 = load i32, i32* %4, align 4
  %29 = add nsw i32 %28, 1
  store i32 %29, i32* %4, align 4
  br label %15

30:                                               ; preds = %25, %15
  %31 = load i32, i32* %7, align 4
  %32 = icmp ne i32 %31, 0
  br i1 %32, label %33, label %40

33:                                               ; preds = %30
  %34 = load i32, i32* %3, align 4
  %35 = load i32, i32* %5, align 4
  %36 = sext i32 %35 to i64
  %37 = getelementptr inbounds [2 x i32], [2 x i32]* %2, i64 0, i64 %36
  store i32 %34, i32* %37, align 4
  %38 = load i32, i32* %5, align 4
  %39 = add nsw i32 %38, 1
  store i32 %39, i32* %5, align 4
  br label %40

40:                                               ; preds = %33, %30
  %41 = load i32, i32* %5, align 4
  %42 = icmp eq i32 %41, 2
  br i1 %42, label %43, label %60

43:                                               ; preds = %40
  %44 = getelementptr inbounds [2 x i32], [2 x i32]* %2, i64 0, i64 0
  %45 = load i32, i32* %44, align 4
  %46 = add nsw i32 %45, 2
  %47 = getelementptr inbounds [2 x i32], [2 x i32]* %2, i64 0, i64 1
  %48 = load i32, i32* %47, align 4
  %49 = icmp eq i32 %46, %48
  br i1 %49, label %50, label %56

50:                                               ; preds = %43
  %51 = getelementptr inbounds [2 x i32], [2 x i32]* %2, i64 0, i64 0
  %52 = load i32, i32* %51, align 4
  %53 = getelementptr inbounds [2 x i32], [2 x i32]* %2, i64 0, i64 1
  %54 = load i32, i32* %53, align 4
  %55 = call i32 (i8*, ...) @printf(i8* getelementptr inbounds ([7 x i8], [7 x i8]* @.str.1, i64 0, i64 0), i32 %52, i32 %54)
  store i32 1, i32* %8, align 4
  br label %56

56:                                               ; preds = %50, %43
  %57 = getelementptr inbounds [2 x i32], [2 x i32]* %2, i64 0, i64 1
  %58 = load i32, i32* %57, align 4
  %59 = getelementptr inbounds [2 x i32], [2 x i32]* %2, i64 0, i64 0
  store i32 %58, i32* %59, align 4
  store i32 1, i32* %5, align 4
  br label %60

60:                                               ; preds = %56, %40
  br label %61

61:                                               ; preds = %60
  %62 = load i32, i32* %3, align 4
  %63 = add nsw i32 %62, 1
  store i32 %63, i32* %3, align 4
  br label %10

64:                                               ; preds = %10
  %65 = load i32, i32* %8, align 4
  %66 = icmp eq i32 %65, 0
  br i1 %66, label %67, label %69

67:                                               ; preds = %64
  %68 = call i32 (i8*, ...) @printf(i8* getelementptr inbounds ([6 x i8], [6 x i8]* @.str.2, i64 0, i64 0))
  br label %69

69:                                               ; preds = %67, %64
  ret i32 0
}

declare dso_local i32 @__isoc99_scanf(i8*, ...) #1

declare dso_local i32 @printf(i8*, ...) #1


!llvm.module.flags = !{!0}
!llvm.ident = !{!1}

!0 = !{i32 1, !"wchar_size", i32 4}
!1 = !{!"clang version 10.0.0-4ubuntu1 "}
